; ModuleID = '34/2272.c'
source_filename = "34/2272.c"
target datalayout = "e-m:e-p270:32:32-p271:32:32-p272:64:64-i64:64-f80:128-n8:16:32:64-S128"
target triple = "x86_64-pc-linux-gnu"

@.str = private unnamed_addr constant [3 x i8] c"%d\00", align 1
@.str.1 = private unnamed_addr constant [5 x i8] c"End\0A\00", align 1
@.str.2 = private unnamed_addr constant [11 x i8] c"%d*3+1=%d\0A\00", align 1
@.str.3 = private unnamed_addr constant [9 x i8] c"%d/2=%d\0A\00", align 1

; Function Attrs: noinline nounwind uwtable
define dso_local i32 @main(i32 %0, i8** %1) #0 {
  %3 = alloca i32, align 4
  %4 = alloca i32, align 4
  %5 = alloca i8**, align 8
  %6 = alloca i32, align 4
  store i32 0, i32* %3, align 4
  store i32 %0, i32* %4, align 4
  store i8** %1, i8*** %5, align 8
  %7 = call i32 (i8*, ...) @__isoc99_scanf(i8* getelementptr inbounds ([3 x i8], [3 x i8]* @.str, i64 0, i64 0), i32* %6)
  br label %8

8:                                                ; preds = %39, %30, %17, %2
  %9 = load i32, i32* %6, align 4
  %10 = icmp eq i32 %9, 1
  br i1 %10, label %11, label %13

11:                                               ; preds = %8
  %12 = call i32 (i8*, ...) @printf(i8* getelementptr inbounds ([5 x i8], [5 x i8]* @.str.1, i64 0, i64 0))
  br label %40

13:                                               ; preds = %8
  %14 = load i32, i32* %6, align 4
  %15 = srem i32 %14, 2
  %16 = icmp eq i32 %15, 1
  br i1 %16, label %17, label %26

17:                                               ; preds = %13
  %18 = load i32, i32* %6, align 4
  %19 = load i32, i32* %6, align 4
  %20 = mul nsw i32 3, %19
  %21 = add nsw i32 %20, 1
  %22 = call i32 (i8*, ...) @printf(i8* getelementptr inbounds ([11 x i8], [11 x i8]* @.str.2, i64 0, i64 0), i32 %18, i32 %21)
  %23 = load i32, i32* %6, align 4
  %24 = mul nsw i32 3, %23
  %25 = add nsw i32 %24, 1
  store i32 %25, i32* %6, align 4
  br label %8

26:                                               ; preds = %13
  %27 = load i32, i32* %6, align 4
  %28 = srem i32 %27, 2
  %29 = icmp eq i32 %28, 0
  br i1 %29, label %30, label %37

30:                                               ; preds = %26
  %31 = load i32, i32* %6, align 4
  %32 = load i32, i32* %6, align 4
  %33 = sdiv i32 %32, 2
  %34 = call i32 (i8*, ...) @printf(i8* getelementptr inbounds ([9 x i8], [9 x i8]* @.str.3, i64 0, i64 0), i32 %31, i32 %33)
  %35 = load i32, i32* %6, align 4
  %36 = sdiv i32 %35, 2
  store i32 %36, i32* %6, align 4
  br label %8

37:                                               ; preds = %26
  br label %38

38:                                               ; preds = %37
  br label %39

39:                                               ; preds = %38
  br label %8

40:                                               ; preds = %11
  ret i32 0
}

declare dso_local i32 @__isoc99_scanf(i8*, ...) #1

declare dso_local i32 @printf(i8*, ...) #1


!llvm.module.flags = !{!0}
!llvm.ident = !{!1}

!0 = !{i32 1, !"wchar_size", i32 4}
!1 = !{!"clang version 10.0.0-4ubuntu1 "}
